; ModuleID = '9/1522.c'
source_filename = "9/1522.c"
target datalayout = "e-m:e-p270:32:32-p271:32:32-p272:64:64-i64:64-f80:128-n8:16:32:64-S128"
target triple = "x86_64-pc-linux-gnu"

%struct.patient = type { i32, i32, [10 x i8] }

@.str = private unnamed_addr constant [3 x i8] c"%d\00", align 1
@.str.1 = private unnamed_addr constant [6 x i8] c"%s %d\00", align 1
@.str.2 = private unnamed_addr constant [4 x i8] c"%s\0A\00", align 1

; Function Attrs: noinline nounwind uwtable
define dso_local i32 @cmp(i8* %0, i8* %1) #0 {
  %3 = alloca i32, align 4
  %4 = alloca i8*, align 8
  %5 = alloca i8*, align 8
  %6 = alloca %struct.patient*, align 8
  %7 = alloca %struct.patient*, align 8
  store i8* %0, i8** %4, align 8
  store i8* %1, i8** %5, align 8
  %8 = load i8*, i8** %4, align 8
  %9 = bitcast i8* %8 to %struct.patient*
  store %struct.patient* %9, %struct.patient** %6, align 8
  %10 = load i8*, i8** %5, align 8
  %11 = bitcast i8* %10 to %struct.patient*
  store %struct.patient* %11, %struct.patient** %7, align 8
  %12 = load %struct.patient*, %struct.patient** %6, align 8
  %13 = getelementptr inbounds %struct.patient, %struct.patient* %12, i32 0, i32 1
  %14 = load i32, i32* %13, align 4
  %15 = icmp sge i32 %14, 60
  br i1 %15, label %16, label %22

16:                                               ; preds = %2
  %17 = load %struct.patient*, %struct.patient** %7, align 8
  %18 = getelementptr inbounds %struct.patient, %struct.patient* %17, i32 0, i32 1
  %19 = load i32, i32* %18, align 4
  %20 = icmp slt i32 %19, 60
  br i1 %20, label %21, label %22

21:                                               ; preds = %16
  store i32 -1, i32* %3, align 4
  br label %62

22:                                               ; preds = %16, %2
  %23 = load %struct.patient*, %struct.patient** %6, align 8
  %24 = getelementptr inbounds %struct.patient, %struct.patient* %23, i32 0, i32 1
  %25 = load i32, i32* %24, align 4
  %26 = icmp slt i32 %25, 60
  br i1 %26, label %27, label %33

27:                                               ; preds = %22
  %28 = load %struct.patient*, %struct.patient** %7, align 8
  %29 = getelementptr inbounds %struct.patient, %struct.patient* %28, i32 0, i32 1
  %30 = load i32, i32* %29, align 4
  %31 = icmp sge i32 %30, 60
  br i1 %31, label %32, label %33

32:                                               ; preds = %27
  store i32 1, i32* %3, align 4
  br label %62

33:                                               ; preds = %27, %22
  %34 = load %struct.patient*, %struct.patient** %6, align 8
  %35 = getelementptr inbounds %struct.patient, %struct.patient* %34, i32 0, i32 1
  %36 = load i32, i32* %35, align 4
  %37 = icmp sge i32 %36, 60
  br i1 %37, label %38, label %54

38:                                               ; preds = %33
  %39 = load %struct.patient*, %struct.patient** %6, align 8
  %40 = getelementptr inbounds %struct.patient, %struct.patient* %39, i32 0, i32 1
  %41 = load i32, i32* %40, align 4
  %42 = load %struct.patient*, %struct.patient** %7, align 8
  %43 = getelementptr inbounds %struct.patient, %struct.patient* %42, i32 0, i32 1
  %44 = load i32, i32* %43, align 4
  %45 = icmp ne i32 %41, %44
  br i1 %45, label %46, label %54

46:                                               ; preds = %38
  %47 = load %struct.patient*, %struct.patient** %7, align 8
  %48 = getelementptr inbounds %struct.patient, %struct.patient* %47, i32 0, i32 1
  %49 = load i32, i32* %48, align 4
  %50 = load %struct.patient*, %struct.patient** %6, align 8
  %51 = getelementptr inbounds %struct.patient, %struct.patient* %50, i32 0, i32 1
  %52 = load i32, i32* %51, align 4
  %53 = sub nsw i32 %49, %52
  store i32 %53, i32* %3, align 4
  br label %62

54:                                               ; preds = %38, %33
  %55 = load %struct.patient*, %struct.patient** %6, align 8
  %56 = getelementptr inbounds %struct.patient, %struct.patient* %55, i32 0, i32 0
  %57 = load i32, i32* %56, align 4
  %58 = load %struct.patient*, %struct.patient** %7, align 8
  %59 = getelementptr inbounds %struct.patient, %struct.patient* %58, i32 0, i32 0
  %60 = load i32, i32* %59, align 4
  %61 = sub nsw i32 %57, %60
  store i32 %61, i32* %3, align 4
  br label %62

62:                                               ; preds = %54, %46, %32, %21
  %63 = load i32, i32* %3, align 4
  ret i32 %63
}

; Function Attrs: noinline nounwind uwtable
define dso_local i32 @main() #0 {
  %1 = alloca i32, align 4
  %2 = alloca i32, align 4
  %3 = alloca i32, align 4
  %4 = alloca [100 x %struct.patient], align 16
  store i32 0, i32* %1, align 4
  %5 = call i32 (i8*, ...) @__isoc99_scanf(i8* getelementptr inbounds ([3 x i8], [3 x i8]* @.str, i64 0, i64 0), i32* %3)
  store i32 0, i32* %2, align 4
  br label %6

6:                                                ; preds = %26, %0
  %7 = load i32, i32* %2, align 4
  %8 = load i32, i32* %3, align 4
  %9 = icmp slt i32 %7, %8
  br i1 %9, label %10, label %29

10:                                               ; preds = %6
  %11 = load i32, i32* %2, align 4
  %12 = load i32, i32* %2, align 4
  %13 = sext i32 %12 to i64
  %14 = getelementptr inbounds [100 x %struct.patient], [100 x %struct.patient]* %4, i64 0, i64 %13
  %15 = getelementptr inbounds %struct.patient, %struct.patient* %14, i32 0, i32 0
  store i32 %11, i32* %15, align 4
  %16 = load i32, i32* %2, align 4
  %17 = sext i32 %16 to i64
  %18 = getelementptr inbounds [100 x %struct.patient], [100 x %struct.patient]* %4, i64 0, i64 %17
  %19 = getelementptr inbounds %struct.patient, %struct.patient* %18, i32 0, i32 2
  %20 = getelementptr inbounds [10 x i8], [10 x i8]* %19, i64 0, i64 0
  %21 = load i32, i32* %2, align 4
  %22 = sext i32 %21 to i64
  %23 = getelementptr inbounds [100 x %struct.patient], [100 x %struct.patient]* %4, i64 0, i64 %22
  %24 = getelementptr inbounds %struct.patient, %struct.patient* %23, i32 0, i32 1
  %25 = call i32 (i8*, ...) @__isoc99_scanf(i8* getelementptr inbounds ([6 x i8], [6 x i8]* @.str.1, i64 0, i64 0), i8* %20, i32* %24)
  br label %26

26:                                               ; preds = %10
  %27 = load i32, i32* %2, align 4
  %28 = add nsw i32 %27, 1
  store i32 %28, i32* %2, align 4
  br label %6

29:                                               ; preds = %6
  %30 = getelementptr inbounds [100 x %struct.patient], [100 x %struct.patient]* %4, i64 0, i64 0
  %31 = bitcast %struct.patient* %30 to i8*
  %32 = load i32, i32* %3, align 4
  %33 = sext i32 %32 to i64
  call void @qsort(i8* %31, i64 %33, i64 20, i32 (i8*, i8*)* @cmp)
  store i32 0, i32* %2, align 4
  br label %34

34:                                               ; preds = %45, %29
  %35 = load i32, i32* %2, align 4
  %36 = load i32, i32* %3, align 4
  %37 = icmp slt i32 %35, %36
  br i1 %37, label %38, label %48

38:                                               ; preds = %34
  %39 = load i32, i32* %2, align 4
  %40 = sext i32 %39 to i64
  %41 = getelementptr inbounds [100 x %struct.patient], [100 x %struct.patient]* %4, i64 0, i64 %40
  %42 = getelementptr inbounds %struct.patient, %struct.patient* %41, i32 0, i32 2
  %43 = getelementptr inbounds [10 x i8], [10 x i8]* %42, i64 0, i64 0
  %44 = call i32 (i8*, ...) @printf(i8* getelementptr inbounds ([4 x i8], [4 x i8]* @.str.2, i64 0, i64 0), i8* %43)
  br label %45

45:                                               ; preds = %38
  %46 = load i32, i32* %2, align 4
  %47 = add nsw i32 %46, 1
  store i32 %47, i32* %2, align 4
  br label %34

48:                                               ; preds = %34
  %49 = load i32, i32* %1, align 4
  ret i32 %49
}

declare dso_local i32 @__isoc99_scanf(i8*, ...) #1

declare dso_local void @qsort(i8*, i64, i64, i32 (i8*, i8*)*) #1

declare dso_local i32 @printf(i8*, ...) #1


!llvm.module.flags = !{!0}
!llvm.ident = !{!1}

!0 = !{i32 1, !"wchar_size", i32 4}
!1 = !{!"clang version 10.0.0-4ubuntu1 "}
