; ModuleID = 'source-C-CXX/8/1522.c'
source_filename = "source-C-CXX/8/1522.c"
target datalayout = "e-m:e-p270:32:32-p271:32:32-p272:64:64-i64:64-f80:128-n8:16:32:64-S128"
target triple = "x86_64-pc-linux-gnu"

%struct.patient = type { i32, i32, [10 x i8] }

@.str = private unnamed_addr constant [3 x i8] c"%d\00", align 1
@.str.1 = private unnamed_addr constant [6 x i8] c"%s %d\00", align 1

; Function Attrs: mustprogress nofree norecurse nosync nounwind readonly sspstrong uwtable willreturn
define dso_local i32 @cmp(i8* nocapture readonly %0, i8* nocapture readonly %1) #0 {
  %3 = getelementptr inbounds i8, i8* %0, i64 4
  %4 = bitcast i8* %3 to i32*
  %5 = load i32, i32* %4, align 4, !tbaa !5
  %6 = icmp sgt i32 %5, 59
  %7 = getelementptr inbounds i8, i8* %1, i64 4
  %8 = bitcast i8* %7 to i32*
  %9 = load i32, i32* %8, align 4, !tbaa !5
  br i1 %6, label %10, label %12

10:                                               ; preds = %2
  %11 = icmp slt i32 %9, 60
  br i1 %11, label %24, label %14

12:                                               ; preds = %2
  %13 = icmp sgt i32 %9, 59
  br i1 %13, label %24, label %18

14:                                               ; preds = %10
  %15 = icmp eq i32 %9, %5
  br i1 %15, label %18, label %16

16:                                               ; preds = %14
  %17 = sub nsw i32 %9, %5
  br label %24

18:                                               ; preds = %12, %14
  %19 = bitcast i8* %0 to i32*
  %20 = load i32, i32* %19, align 4, !tbaa !10
  %21 = bitcast i8* %1 to i32*
  %22 = load i32, i32* %21, align 4, !tbaa !10
  %23 = sub nsw i32 %20, %22
  br label %24

24:                                               ; preds = %12, %10, %18, %16
  %25 = phi i32 [ %17, %16 ], [ %23, %18 ], [ -1, %10 ], [ 1, %12 ]
  ret i32 %25
}

; Function Attrs: argmemonly mustprogress nofree nosync nounwind willreturn
declare void @llvm.lifetime.start.p0i8(i64 immarg, i8* nocapture) #1

; Function Attrs: argmemonly mustprogress nofree nosync nounwind willreturn
declare void @llvm.lifetime.end.p0i8(i64 immarg, i8* nocapture) #1

; Function Attrs: nofree nounwind sspstrong uwtable
define dso_local i32 @main() local_unnamed_addr #2 {
  %1 = alloca i32, align 4
  %2 = alloca [100 x %struct.patient], align 16
  %3 = bitcast i32* %1 to i8*
  call void @llvm.lifetime.start.p0i8(i64 4, i8* nonnull %3) #6
  %4 = bitcast [100 x %struct.patient]* %2 to i8*
  call void @llvm.lifetime.start.p0i8(i64 2000, i8* nonnull %4) #6
  %5 = call i32 (i8*, ...) @__isoc99_scanf(i8* getelementptr inbounds ([3 x i8], [3 x i8]* @.str, i64 0, i64 0), i32* nonnull %1)
  %6 = load i32, i32* %1, align 4, !tbaa !11
  %7 = icmp sgt i32 %6, 0
  br i1 %7, label %8, label %19

8:                                                ; preds = %0, %8
  %9 = phi i64 [ %15, %8 ], [ 0, %0 ]
  %10 = getelementptr inbounds [100 x %struct.patient], [100 x %struct.patient]* %2, i64 0, i64 %9, i32 0
  %11 = trunc i64 %9 to i32
  store i32 %11, i32* %10, align 4, !tbaa !10
  %12 = getelementptr inbounds [100 x %struct.patient], [100 x %struct.patient]* %2, i64 0, i64 %9, i32 2, i64 0
  %13 = getelementptr inbounds [100 x %struct.patient], [100 x %struct.patient]* %2, i64 0, i64 %9, i32 1
  %14 = call i32 (i8*, ...) @__isoc99_scanf(i8* getelementptr inbounds ([6 x i8], [6 x i8]* @.str.1, i64 0, i64 0), i8* nonnull %12, i32* nonnull %13)
  %15 = add nuw nsw i64 %9, 1
  %16 = load i32, i32* %1, align 4, !tbaa !11
  %17 = sext i32 %16 to i64
  %18 = icmp slt i64 %15, %17
  br i1 %18, label %8, label %19, !llvm.loop !12

19:                                               ; preds = %8, %0
  %20 = phi i32 [ %6, %0 ], [ %16, %8 ]
  %21 = sext i32 %20 to i64
  call void @qsort(i8* nonnull %4, i64 %21, i64 20, i32 (i8*, i8*)* nonnull @cmp) #6
  %22 = load i32, i32* %1, align 4, !tbaa !11
  %23 = icmp sgt i32 %22, 0
  br i1 %23, label %24, label %32

24:                                               ; preds = %19, %24
  %25 = phi i64 [ %28, %24 ], [ 0, %19 ]
  %26 = getelementptr inbounds [100 x %struct.patient], [100 x %struct.patient]* %2, i64 0, i64 %25, i32 2, i64 0
  %27 = call i32 @puts(i8* nonnull %26)
  %28 = add nuw nsw i64 %25, 1
  %29 = load i32, i32* %1, align 4, !tbaa !11
  %30 = sext i32 %29 to i64
  %31 = icmp slt i64 %28, %30
  br i1 %31, label %24, label %32, !llvm.loop !14

32:                                               ; preds = %24, %19
  call void @llvm.lifetime.end.p0i8(i64 2000, i8* nonnull %4) #6
  call void @llvm.lifetime.end.p0i8(i64 4, i8* nonnull %3) #6
  ret i32 0
}

; Function Attrs: nofree nounwind
declare noundef i32 @__isoc99_scanf(i8* nocapture noundef readonly, ...) local_unnamed_addr #3

; Function Attrs: nofree
declare void @qsort(i8* noundef, i64 noundef, i64 noundef, i32 (i8*, i8*)* nocapture noundef) local_unnamed_addr #4

; Function Attrs: nofree nounwind
declare noundef i32 @puts(i8* nocapture noundef readonly) local_unnamed_addr #5


!llvm.module.flags = !{!0, !1, !2, !3}
!llvm.ident = !{!4}

!0 = !{i32 1, !"wchar_size", i32 4}
!1 = !{i32 7, !"PIC Level", i32 2}
!2 = !{i32 7, !"PIE Level", i32 2}
!3 = !{i32 7, !"uwtable", i32 1}
!4 = !{!"clang version 13.0.0"}
!5 = !{!6, !7, i64 4}
!6 = !{!"patient", !7, i64 0, !7, i64 4, !8, i64 8}
!7 = !{!"int", !8, i64 0}
!8 = !{!"omnipotent char", !9, i64 0}
!9 = !{!"Simple C/C++ TBAA"}
!10 = !{!6, !7, i64 0}
!11 = !{!7, !7, i64 0}
!12 = distinct !{!12, !13}
!13 = !{!"llvm.loop.mustprogress"}
!14 = distinct !{!14, !13}
